target datalayout = "e-m:e-p270:32:32-p271:32:32-p272:64:64-i64:64-i128:128-f80:128-n8:16:32:64-S128"
target triple = "x86_64-unknown-linux-gnu"

%struct.QEMUIOVector = type { ptr, i32, %union.anon.13 }
%union.anon.13 = type { %struct.anon.14 }
%struct.anon.14 = type { i32, %struct.iovec }
%struct.iovec = type { ptr, i64 }
%struct.anon.15 = type { [12 x i8], i64 }

@.str.1 = private unnamed_addr constant [19 x i8] c"../qemu/block/io.c\00", align 1
@__func__.bdrv_check_qiov_request = private unnamed_addr constant [24 x i8] c"bdrv_check_qiov_request\00", align 1
@.str.13 = private unnamed_addr constant [24 x i8] c"offset is negative: %li\00", align 1
@.str.14 = private unnamed_addr constant [23 x i8] c"bytes is negative: %li\00", align 1
@.str.15 = private unnamed_addr constant [32 x i8] c"bytes(%li) exceeds maximum(%li)\00", align 1
@.str.16 = private unnamed_addr constant [33 x i8] c"offset(%li) exceeds maximum(%li)\00", align 1
@.str.17 = private unnamed_addr constant [55 x i8] c"sum of offset(%li) and bytes(%li) exceeds maximum(%li)\00", align 1
@.str.18 = private unnamed_addr constant [46 x i8] c"qiov_offset(%zu) overflow io vector size(%zu)\00", align 1
@.str.19 = private unnamed_addr constant [59 x i8] c"bytes(%li) + qiov_offset(%zu) overflow io vector size(%zu)\00", align 1

; Function Attrs: nounwind sspstrong uwtable
define dso_local i32 @bdrv_check_qiov_request(i64 noundef %offset, i64 noundef %bytes, ptr noundef %qiov, i64 noundef %qiov_offset, ptr noundef %errp) #0 {
entry:
  %retval = alloca i32, align 4
  %offset.addr = alloca i64, align 8
  %bytes.addr = alloca i64, align 8
  %qiov.addr = alloca ptr, align 8
  %qiov_offset.addr = alloca i64, align 8
  %errp.addr = alloca ptr, align 8
  store i64 %offset, ptr %offset.addr, align 8
  store i64 %bytes, ptr %bytes.addr, align 8
  store ptr %qiov, ptr %qiov.addr, align 8
  store i64 %qiov_offset, ptr %qiov_offset.addr, align 8
  store ptr %errp, ptr %errp.addr, align 8
  %0 = load i64, ptr %offset.addr, align 8
  %cmp = icmp slt i64 %0, 0
  br i1 %cmp, label %if.then, label %if.end

if.then:                                          ; preds = %entry
  %1 = load ptr, ptr %errp.addr, align 8
  %2 = load i64, ptr %offset.addr, align 8
  call void (ptr, ptr, i32, ptr, ptr, ...) @error_setg_internal(ptr noundef %1, ptr noundef @.str.1, i32 noundef 850, ptr noundef @__func__.bdrv_check_qiov_request, ptr noundef @.str.13, i64 noundef %2)
  store i32 -5, ptr %retval, align 4
  br label %return

if.end:                                           ; preds = %entry
  %3 = load i64, ptr %bytes.addr, align 8
  %cmp1 = icmp slt i64 %3, 0
  br i1 %cmp1, label %if.then2, label %if.end3

if.then2:                                         ; preds = %if.end
  %4 = load ptr, ptr %errp.addr, align 8
  %5 = load i64, ptr %bytes.addr, align 8
  call void (ptr, ptr, i32, ptr, ptr, ...) @error_setg_internal(ptr noundef %4, ptr noundef @.str.1, i32 noundef 855, ptr noundef @__func__.bdrv_check_qiov_request, ptr noundef @.str.14, i64 noundef %5)
  store i32 -5, ptr %retval, align 4
  br label %return

if.end3:                                          ; preds = %if.end
  %6 = load i64, ptr %bytes.addr, align 8
  %cmp4 = icmp sgt i64 %6, 9223372035781033984
  br i1 %cmp4, label %if.then5, label %if.end6

if.then5:                                         ; preds = %if.end3
  %7 = load ptr, ptr %errp.addr, align 8
  %8 = load i64, ptr %bytes.addr, align 8
  call void (ptr, ptr, i32, ptr, ptr, ...) @error_setg_internal(ptr noundef %7, ptr noundef @.str.1, i32 noundef 861, ptr noundef @__func__.bdrv_check_qiov_request, ptr noundef @.str.15, i64 noundef %8, i64 noundef 9223372035781033984)
  store i32 -5, ptr %retval, align 4
  br label %return

if.end6:                                          ; preds = %if.end3
  %9 = load i64, ptr %offset.addr, align 8
  %cmp7 = icmp sgt i64 %9, 9223372035781033984
  br i1 %cmp7, label %if.then8, label %if.end9

if.then8:                                         ; preds = %if.end6
  %10 = load ptr, ptr %errp.addr, align 8
  %11 = load i64, ptr %offset.addr, align 8
  call void (ptr, ptr, i32, ptr, ptr, ...) @error_setg_internal(ptr noundef %10, ptr noundef @.str.1, i32 noundef 867, ptr noundef @__func__.bdrv_check_qiov_request, ptr noundef @.str.16, i64 noundef %11, i64 noundef 9223372035781033984)
  store i32 -5, ptr %retval, align 4
  br label %return

if.end9:                                          ; preds = %if.end6
  %12 = load i64, ptr %offset.addr, align 8
  %13 = load i64, ptr %bytes.addr, align 8
  %sub = sub i64 9223372035781033984, %13
  %cmp10 = icmp sgt i64 %12, %sub
  br i1 %cmp10, label %if.then11, label %if.end12

if.then11:                                        ; preds = %if.end9
  %14 = load ptr, ptr %errp.addr, align 8
  %15 = load i64, ptr %offset.addr, align 8
  %16 = load i64, ptr %bytes.addr, align 8
  call void (ptr, ptr, i32, ptr, ptr, ...) @error_setg_internal(ptr noundef %14, ptr noundef @.str.1, i32 noundef 874, ptr noundef @__func__.bdrv_check_qiov_request, ptr noundef @.str.17, i64 noundef %15, i64 noundef %16, i64 noundef 9223372035781033984)
  store i32 -5, ptr %retval, align 4
  br label %return

if.end12:                                         ; preds = %if.end9
  %17 = load ptr, ptr %qiov.addr, align 8
  %tobool = icmp ne ptr %17, null
  br i1 %tobool, label %if.end14, label %if.then13

if.then13:                                        ; preds = %if.end12
  store i32 0, ptr %retval, align 4
  br label %return

if.end14:                                         ; preds = %if.end12
  %18 = load i64, ptr %qiov_offset.addr, align 8
  %19 = load ptr, ptr %qiov.addr, align 8
  %20 = getelementptr inbounds %struct.QEMUIOVector, ptr %19, i32 0, i32 2
  %size = getelementptr inbounds %struct.anon.15, ptr %20, i32 0, i32 1
  %21 = load i64, ptr %size, align 8
  %cmp15 = icmp ugt i64 %18, %21
  br i1 %cmp15, label %if.then16, label %if.end18

if.then16:                                        ; preds = %if.end14
  %22 = load ptr, ptr %errp.addr, align 8
  %23 = load i64, ptr %qiov_offset.addr, align 8
  %24 = load ptr, ptr %qiov.addr, align 8
  %25 = getelementptr inbounds %struct.QEMUIOVector, ptr %24, i32 0, i32 2
  %size17 = getelementptr inbounds %struct.anon.15, ptr %25, i32 0, i32 1
  %26 = load i64, ptr %size17, align 8
  call void (ptr, ptr, i32, ptr, ptr, ...) @error_setg_internal(ptr noundef %22, ptr noundef @.str.1, i32 noundef 888, ptr noundef @__func__.bdrv_check_qiov_request, ptr noundef @.str.18, i64 noundef %23, i64 noundef %26)
  store i32 -5, ptr %retval, align 4
  br label %return

if.end18:                                         ; preds = %if.end14
  %27 = load i64, ptr %bytes.addr, align 8
  %28 = load ptr, ptr %qiov.addr, align 8
  %29 = getelementptr inbounds %struct.QEMUIOVector, ptr %28, i32 0, i32 2
  %size19 = getelementptr inbounds %struct.anon.15, ptr %29, i32 0, i32 1
  %30 = load i64, ptr %size19, align 8
  %31 = load i64, ptr %qiov_offset.addr, align 8
  %sub20 = sub i64 %30, %31
  %cmp21 = icmp ugt i64 %27, %sub20
  br i1 %cmp21, label %if.then22, label %if.end24

if.then22:                                        ; preds = %if.end18
  %32 = load ptr, ptr %errp.addr, align 8
  %33 = load i64, ptr %bytes.addr, align 8
  %34 = load i64, ptr %qiov_offset.addr, align 8
  %35 = load ptr, ptr %qiov.addr, align 8
  %36 = getelementptr inbounds %struct.QEMUIOVector, ptr %35, i32 0, i32 2
  %size23 = getelementptr inbounds %struct.anon.15, ptr %36, i32 0, i32 1
  %37 = load i64, ptr %size23, align 8
  call void (ptr, ptr, i32, ptr, ptr, ...) @error_setg_internal(ptr noundef %32, ptr noundef @.str.1, i32 noundef 894, ptr noundef @__func__.bdrv_check_qiov_request, ptr noundef @.str.19, i64 noundef %33, i64 noundef %34, i64 noundef %37)
  store i32 -5, ptr %retval, align 4
  br label %return

if.end24:                                         ; preds = %if.end18
  store i32 0, ptr %retval, align 4
  br label %return

return:                                           ; preds = %if.end24, %if.then22, %if.then16, %if.then13, %if.then11, %if.then8, %if.then5, %if.then2, %if.then
  %38 = load i32, ptr %retval, align 4
  ret i32 %38
}