; Function Attrs: nounwind sspstrong uwtable
define dso_local range(i32 -5, 1) i32 @bdrv_check_qiov_request(i64 noundef %offset, i64 noundef %bytes, ptr noundef readonly %qiov, i64 noundef %qiov_offset, ptr noundef %errp) local_unnamed_addr #0 {
entry:
  %cmp = icmp slt i64 %offset, 0
  br i1 %cmp, label %if.then, label %if.end

if.then:                                          ; preds = %entry
  tail call void (ptr, ptr, i32, ptr, ptr, ...) @error_setg_internal(ptr noundef %errp, ptr noundef nonnull @.str.1, i32 noundef 850, ptr noundef nonnull @__func__.bdrv_check_qiov_request, ptr noundef nonnull @.str.13, i64 noundef %offset) #15
  br label %return

if.end:                                           ; preds = %entry
  %cmp1 = icmp slt i64 %bytes, 0
  br i1 %cmp1, label %if.then2, label %if.end3

if.then2:                                         ; preds = %if.end
  tail call void (ptr, ptr, i32, ptr, ptr, ...) @error_setg_internal(ptr noundef %errp, ptr noundef nonnull @.str.1, i32 noundef 855, ptr noundef nonnull @__func__.bdrv_check_qiov_request, ptr noundef nonnull @.str.14, i64 noundef %bytes) #15
  br label %return

if.end3:                                          ; preds = %if.end
  %cmp4 = icmp samesign ugt i64 %bytes, 9223372035781033984
  br i1 %cmp4, label %if.then5, label %if.end6

if.then5:                                         ; preds = %if.end3
  tail call void (ptr, ptr, i32, ptr, ptr, ...) @error_setg_internal(ptr noundef %errp, ptr noundef nonnull @.str.1, i32 noundef 861, ptr noundef nonnull @__func__.bdrv_check_qiov_request, ptr noundef nonnull @.str.15, i64 noundef %bytes, i64 noundef 9223372035781033984) #15
  br label %return

if.end6:                                          ; preds = %if.end3
  %cmp7 = icmp samesign ugt i64 %offset, 9223372035781033984
  br i1 %cmp7, label %if.then8, label %if.end9

if.then8:                                         ; preds = %if.end6
  tail call void (ptr, ptr, i32, ptr, ptr, ...) @error_setg_internal(ptr noundef %errp, ptr noundef nonnull @.str.1, i32 noundef 867, ptr noundef nonnull @__func__.bdrv_check_qiov_request, ptr noundef nonnull @.str.16, i64 noundef %offset, i64 noundef 9223372035781033984) #15
  br label %return

if.end9:                                          ; preds = %if.end6
  %sub = sub nuw nsw i64 9223372035781033984, %bytes
  %cmp10 = icmp samesign ugt i64 %offset, %sub
  br i1 %cmp10, label %if.then11, label %if.end12

if.then11:                                        ; preds = %if.end9
  tail call void (ptr, ptr, i32, ptr, ptr, ...) @error_setg_internal(ptr noundef %errp, ptr noundef nonnull @.str.1, i32 noundef 874, ptr noundef nonnull @__func__.bdrv_check_qiov_request, ptr noundef nonnull @.str.17, i64 noundef %offset, i64 noundef %bytes, i64 noundef 9223372035781033984) #15
  br label %return

if.end12:                                         ; preds = %if.end9
  %tobool.not = icmp eq ptr %qiov, null
  br i1 %tobool.not, label %return, label %if.end14

if.end14:                                         ; preds = %if.end12
  %size = getelementptr inbounds nuw i8, ptr %qiov, i64 32
  %0 = load i64, ptr %size, align 8
  %cmp15 = icmp ugt i64 %qiov_offset, %0
  br i1 %cmp15, label %if.then16, label %if.end18

if.then16:                                        ; preds = %if.end14
  tail call void (ptr, ptr, i32, ptr, ptr, ...) @error_setg_internal(ptr noundef %errp, ptr noundef nonnull @.str.1, i32 noundef 888, ptr noundef nonnull @__func__.bdrv_check_qiov_request, ptr noundef nonnull @.str.18, i64 noundef %qiov_offset, i64 noundef %0) #15
  br label %return

if.end18:                                         ; preds = %if.end14
  %sub20 = sub nuw i64 %0, %qiov_offset
  %cmp21 = icmp ugt i64 %bytes, %sub20
  br i1 %cmp21, label %if.then22, label %return

if.then22:                                        ; preds = %if.end18
  tail call void (ptr, ptr, i32, ptr, ptr, ...) @error_setg_internal(ptr noundef %errp, ptr noundef nonnull @.str.1, i32 noundef 894, ptr noundef nonnull @__func__.bdrv_check_qiov_request, ptr noundef nonnull @.str.19, i64 noundef %bytes, i64 noundef %qiov_offset, i64 noundef %0) #15
  br label %return

return:                                           ; preds = %if.end18, %if.end12, %if.then22, %if.then16, %if.then11, %if.then8, %if.then5, %if.then2, %if.then
  %retval.0 = phi i32 [ -5, %if.then ], [ -5, %if.then2 ], [ -5, %if.then5 ], [ -5, %if.then8 ], [ -5, %if.then11 ], [ -5, %if.then16 ], [ -5, %if.then22 ], [ 0, %if.end12 ], [ 0, %if.end18 ]
  ret i32 %retval.0
}